; Function Attrs: mustprogress nounwind uwtable
define internal fastcc void @_ZN4llvmL16canonicalizePathENS_9StringRefE(ptr dead_on_unwind noalias nonnull writable align 8 %0, ptr %1, i64 %2) unnamed_addr #0 {
  %4 = alloca %"class.llvm::SmallString", align 8
  %5 = getelementptr inbounds i8, ptr %1, i64 %2
  %6 = getelementptr inbounds nuw i8, ptr %4, i64 24
  call void @_ZN4llvm15SmallVectorBaseImEC2EPvm(ptr noundef nonnull align 8 dereferenceable(152) %4, ptr noundef nonnull %6, i64 noundef 128) #21
  call void @_ZN4llvm15SmallVectorImplIcE6appendIPKcvEEvT_S5_(ptr noundef nonnull align 8 dereferenceable(152) %4, ptr noundef %1, ptr noundef %5)
  %7 = call { i32, ptr } @_ZN4llvm3sys2fs13make_absoluteERNS_15SmallVectorImplIcEE(ptr noundef nonnull align 8 dereferenceable(24) %4) #21
  %8 = extractvalue { i32, ptr } %7, 0
  %.not = icmp eq i32 %8, 0
  %9 = getelementptr inbounds nuw i8, ptr %0, i64 152
  br i1 %.not, label %14, label %10

10:                                               ; preds = %3
  %11 = extractvalue { i32, ptr } %7, 1
  %12 = load i8, ptr %9, align 8
  %13 = or i8 %12, 1
  store i8 %13, ptr %9, align 8
  store i32 %8, ptr %0, align 8
  %.sroa.21.0..sroa_idx.i = getelementptr inbounds nuw i8, ptr %0, i64 8
  store ptr %11, ptr %.sroa.21.0..sroa_idx.i, align 8
  br label %_ZN4llvm7ErrorOrINS_11SmallStringILj128EEEEC2IS2_EEOT_PNSt9enable_ifIXsr3stdE16is_convertible_vIS5_S2_EEvE4typeE.exit

14:                                               ; preds = %3
  %15 = call noundef zeroext i1 @_ZN4llvm3sys4path11remove_dotsERNS_15SmallVectorImplIcEEbNS1_5StyleE(ptr noundef nonnull align 8 dereferenceable(24) %4, i1 noundef zeroext true, i32 noundef 0) #21
  %16 = load i8, ptr %9, align 8
  %17 = and i8 %16, -2
  store i8 %17, ptr %9, align 8
  %18 = getelementptr inbounds nuw i8, ptr %0, i64 24
  call void @_ZN4llvm15SmallVectorBaseImEC2EPvm(ptr noundef nonnull align 8 dereferenceable(153) %0, ptr noundef nonnull %18, i64 noundef 128) #21
  %19 = call noundef zeroext i1 @_ZNK4llvm15SmallVectorBaseImE5emptyEv(ptr noundef nonnull align 8 dereferenceable(152) %4) #21
  br i1 %19, label %_ZN4llvm7ErrorOrINS_11SmallStringILj128EEEEC2IS2_EEOT_PNSt9enable_ifIXsr3stdE16is_convertible_vIS5_S2_EEvE4typeE.exit, label %20

20:                                               ; preds = %14
  %21 = call noundef nonnull align 8 dereferenceable(24) ptr @_ZN4llvm15SmallVectorImplIcEaSEOS1_(ptr noundef nonnull align 8 dereferenceable(153) %0, ptr noundef nonnull align 8 dereferenceable(152) %4)
  br label %_ZN4llvm7ErrorOrINS_11SmallStringILj128EEEEC2IS2_EEOT_PNSt9enable_ifIXsr3stdE16is_convertible_vIS5_S2_EEvE4typeE.exit

_ZN4llvm7ErrorOrINS_11SmallStringILj128EEEEC2IS2_EEOT_PNSt9enable_ifIXsr3stdE16is_convertible_vIS5_S2_EEvE4typeE.exit: ; preds = %20, %14, %10
  %22 = call noundef i64 @_ZNK4llvm15SmallVectorBaseImE4sizeEv(ptr noundef nonnull align 8 dereferenceable(152) %4) #21
  %23 = load ptr, ptr %4, align 8
  %24 = icmp eq ptr %23, %6
  br i1 %24, label %_ZN4llvm11SmallStringILj128EED2Ev.exit, label %25

25:                                               ; preds = %_ZN4llvm7ErrorOrINS_11SmallStringILj128EEEEC2IS2_EEOT_PNSt9enable_ifIXsr3stdE16is_convertible_vIS5_S2_EEvE4typeE.exit
  call void @free(ptr noundef %23) #21
  br label %_ZN4llvm11SmallStringILj128EED2Ev.exit

_ZN4llvm11SmallStringILj128EED2Ev.exit:           ; preds = %_ZN4llvm7ErrorOrINS_11SmallStringILj128EEEEC2IS2_EEOT_PNSt9enable_ifIXsr3stdE16is_convertible_vIS5_S2_EEvE4typeE.exit, %25
  ret void
}